; Function Attrs: nounwind uwtable
define internal fastcc range(i32 -1, 1) i32 @_unpack_part_info_request_msg(ptr noundef writeonly captures(none) initializes((0, 8)) %0, ptr noundef %1) unnamed_addr #0 {
  %3 = tail call ptr @slurm_xcalloc(i64 noundef 1, i64 noundef 16, i1 noundef zeroext true, i1 noundef zeroext false, ptr noundef nonnull @.str.2, i32 noundef 9663, ptr noundef nonnull @__func__._unpack_part_info_request_msg) #7
  store ptr %3, ptr %0, align 8
  %4 = tail call i32 @unpack_time(ptr noundef %3, ptr noundef %1) #7
  %.not = icmp eq i32 %4, 0
  br i1 %.not, label %5, label %8

5:                                                ; preds = %2
  %6 = getelementptr inbounds nuw i8, ptr %3, i64 8
  %7 = tail call i32 @unpack16(ptr noundef nonnull %6, ptr noundef %1) #7
  %.not8 = icmp eq i32 %7, 0
  br i1 %.not8, label %9, label %8

8:                                                ; preds = %5, %2
  tail call void @slurm_free_part_info_request_msg(ptr noundef %3) #7
  store ptr null, ptr %0, align 8
  br label %9

9:                                                ; preds = %5, %8
  %.0 = phi i32 [ -1, %8 ], [ 0, %5 ]
  ret i32 %.0
}